	.file	"main.c"
	.text
.Ltext0:
	.file 0 "/src" "main.c"
	.globl	bubble_sort
	.type	bubble_sort, @function
bubble_sort:
.LFB6:
	.file 1 "main.c"
	.loc 1 11 35
	.cfi_startproc
	endbr64
	pushq	%rbp
	.cfi_def_cfa_offset 16
	.cfi_offset 6, -16
	movq	%rsp, %rbp
	.cfi_def_cfa_register 6
	subq	$32, %rsp
1:	call	*mcount@GOTPCREL(%rip)
	movq	%rdi, -24(%rbp)
	movl	%esi, -28(%rbp)
	.loc 1 13 12
	movl	$0, -12(%rbp)
	.loc 1 13 5
	jmp	.L2
.L6:
	.loc 1 14 16
	movl	$0, -8(%rbp)
	.loc 1 14 9
	jmp	.L3
.L5:
	.loc 1 15 20
	movl	-8(%rbp), %eax
	cltq
	leaq	0(,%rax,4), %rdx
	movq	-24(%rbp), %rax
	addq	%rdx, %rax
	movl	(%rax), %edx
	.loc 1 15 29
	movl	-8(%rbp), %eax
	cltq
	addq	$1, %rax
	leaq	0(,%rax,4), %rcx
	movq	-24(%rbp), %rax
	addq	%rcx, %rax
	movl	(%rax), %eax
	.loc 1 15 16
	cmpl	%eax, %edx
	jle	.L4
	.loc 1 16 27
	movl	-8(%rbp), %eax
	cltq
	leaq	0(,%rax,4), %rdx
	movq	-24(%rbp), %rax
	addq	%rdx, %rax
	.loc 1 16 22
	movl	(%rax), %eax
	movl	%eax, -4(%rbp)
	.loc 1 17 29
	movl	-8(%rbp), %eax
	cltq
	addq	$1, %rax
	leaq	0(,%rax,4), %rdx
	movq	-24(%rbp), %rax
	addq	%rdx, %rax
	.loc 1 17 20
	movl	-8(%rbp), %edx
	movslq	%edx, %rdx
	leaq	0(,%rdx,4), %rcx
	movq	-24(%rbp), %rdx
	addq	%rcx, %rdx
	.loc 1 17 29
	movl	(%rax), %eax
	.loc 1 17 24
	movl	%eax, (%rdx)
	.loc 1 18 20
	movl	-8(%rbp), %eax
	cltq
	addq	$1, %rax
	leaq	0(,%rax,4), %rdx
	movq	-24(%rbp), %rax
	addq	%rax, %rdx
	.loc 1 18 26
	movl	-4(%rbp), %eax
	movl	%eax, (%rdx)
.L4:
	.loc 1 14 33 discriminator 2
	addl	$1, -8(%rbp)
.L3:
	.loc 1 14 26 discriminator 1
	movl	-28(%rbp), %eax
	subl	-12(%rbp), %eax
	.loc 1 14 28 discriminator 1
	subl	$1, %eax
	.loc 1 14 23 discriminator 1
	cmpl	%eax, -8(%rbp)
	jl	.L5
	.loc 1 13 27 discriminator 2
	addl	$1, -12(%rbp)
.L2:
	.loc 1 13 22 discriminator 1
	movl	-28(%rbp), %eax
	subl	$1, %eax
	.loc 1 13 19 discriminator 1
	cmpl	%eax, -12(%rbp)
	jl	.L6
	.loc 1 22 1
	nop
	nop
	leave
	.cfi_def_cfa 7, 8
	ret
	.cfi_endproc
.LFE6:
	.size	bubble_sort, .-bubble_sort
	.section	.rodata
	.align 8
.LC1:
	.string	"C Bubble sort took %f seconds to execute \n"
	.align 8
.LC2:
	.string	"Assembly Bubble sort took %f seconds to execute \n"
	.text
	.globl	main
	.type	main, @function
main:
.LFB7:
	.loc 1 25 33
	.cfi_startproc
	endbr64
	pushq	%rbp
	.cfi_def_cfa_offset 16
	.cfi_offset 6, -16
	movq	%rsp, %rbp
	.cfi_def_cfa_register 6
	leaq	-798720(%rsp), %r11
.LPSRL0:
	subq	$4096, %rsp
	orq	$0, (%rsp)
	cmpq	%r11, %rsp
	jne	.LPSRL0
	subq	$1344, %rsp
1:	call	*mcount@GOTPCREL(%rip)
	movl	%edi, -800052(%rbp)
	movq	%rsi, -800064(%rbp)
	.loc 1 25 33
	movq	%fs:40, %rax
	movq	%rax, -8(%rbp)
	xorl	%eax, %eax
	.loc 1 27 11
	movl	$0, %edi
	call	time@PLT
	.loc 1 27 5
	movl	%eax, %edi
	call	srand@PLT
.LBB2:
	.loc 1 30 13
	movl	$0, -800044(%rbp)
	.loc 1 30 5
	jmp	.L8
.L9:
	.loc 1 31 18 discriminator 3
	call	rand@PLT
	.loc 1 31 25 discriminator 3
	movslq	%eax, %rdx
	imulq	$274877907, %rdx, %rdx
	shrq	$32, %rdx
	sarl	$6, %edx
	movl	%eax, %ecx
	sarl	$31, %ecx
	subl	%ecx, %edx
	imull	$1000, %edx, %ecx
	subl	%ecx, %eax
	movl	%eax, %edx
	.loc 1 31 16 discriminator 3
	movl	-800044(%rbp), %eax
	cltq
	movl	%edx, -800016(%rbp,%rax,4)
	.loc 1 32 22 discriminator 3
	movl	-800044(%rbp), %eax
	cltq
	movl	-800016(%rbp,%rax,4), %edx
	.loc 1 32 17 discriminator 3
	movl	-800044(%rbp), %eax
	cltq
	movl	%edx, -400016(%rbp,%rax,4)
	.loc 1 30 31 discriminator 3
	addl	$1, -800044(%rbp)
.L8:
	.loc 1 30 22 discriminator 1
	cmpl	$99999, -800044(%rbp)
	jle	.L9
.LBE2:
	.loc 1 36 21
	call	clock@PLT
	movq	%rax, -800040(%rbp)
	.loc 1 37 5
	leaq	-800016(%rbp), %rax
	movl	$100000, %esi
	movq	%rax, %rdi
	call	bubble_sort
	.loc 1 38 19
	call	clock@PLT
	movq	%rax, -800032(%rbp)
	.loc 1 41 26
	pxor	%xmm0, %xmm0
	cvtsi2sdq	-800032(%rbp), %xmm0
	.loc 1 41 38
	pxor	%xmm1, %xmm1
	cvtsi2sdq	-800040(%rbp), %xmm1
	subsd	%xmm1, %xmm0
	.loc 1 41 12
	movsd	.LC0(%rip), %xmm1
	divsd	%xmm1, %xmm0
	movsd	%xmm0, -800024(%rbp)
	.loc 1 42 5
	movq	-800024(%rbp), %rax
	movq	%rax, %xmm0
	leaq	.LC1(%rip), %rax
	movq	%rax, %rdi
	movl	$1, %eax
	call	printf@PLT
	.loc 1 45 13
	call	clock@PLT
	movq	%rax, -800040(%rbp)
	.loc 1 46 5
	leaq	-400016(%rbp), %rax
	movl	$100000, %esi
	movq	%rax, %rdi
	call	asm_function@PLT
	.loc 1 47 11
	call	clock@PLT
	movq	%rax, -800032(%rbp)
	.loc 1 50 19
	pxor	%xmm0, %xmm0
	cvtsi2sdq	-800032(%rbp), %xmm0
	.loc 1 50 31
	pxor	%xmm1, %xmm1
	cvtsi2sdq	-800040(%rbp), %xmm1
	subsd	%xmm1, %xmm0
	.loc 1 50 16
	movsd	.LC0(%rip), %xmm1
	divsd	%xmm1, %xmm0
	movsd	%xmm0, -800024(%rbp)
	.loc 1 51 5
	movq	-800024(%rbp), %rax
	movq	%rax, %xmm0
	leaq	.LC2(%rip), %rax
	movq	%rax, %rdi
	movl	$1, %eax
	call	printf@PLT
	.loc 1 53 12
	movl	$0, %eax
	.loc 1 54 1
	movq	-8(%rbp), %rdx
	subq	%fs:40, %rdx
	je	.L11
	call	__stack_chk_fail@PLT
.L11:
	leave
	.cfi_def_cfa 7, 8
	ret
	.cfi_endproc
.LFE7:
	.size	main, .-main
	.section	.rodata
	.align 8
.LC0:
	.long	0
	.long	1093567616
	.text
.Letext0:
	.file 2 "/usr/include/x86_64-linux-gnu/bits/types.h"
	.file 3 "/usr/include/x86_64-linux-gnu/bits/types/clock_t.h"
	.file 4 "/usr/include/x86_64-linux-gnu/bits/types/time_t.h"
	.file 5 "/usr/include/time.h"
	.file 6 "/usr/include/stdlib.h"
	.file 7 "/usr/include/stdio.h"
	.section	.note.GNU-stack,"",@progbits
	.section	.note.gnu.property,"a"
	.align 8
	.long	1f - 0f
	.long	4f - 1f
	.long	5
0:
	.string	"GNU"
1:
	.align 8
	.long	0xc0000002
	.long	3f - 2f
2:
	.long	0x3
3:
	.align 8
4:
